target datalayout = "e-m:e-p270:32:32-p271:32:32-p272:64:64-i64:64-i128:128-f80:128-n8:16:32:64-S128"
target triple = "x86_64-pc-linux-gnu"

; Function Attrs: nounwind uwtable
define dso_local zeroext i1 @pgstat_tracks_io_bktype(i32 noundef %0) #0 {
  %2 = alloca i1, align 1
  %3 = alloca i32, align 4
  store i32 %0, ptr %3, align 4
  %4 = load i32, ptr %3, align 4
  switch i32 %4, label %7 [
    i32 0, label %5
    i32 2, label %5
    i32 9, label %5
    i32 16, label %5
    i32 3, label %6
    i32 4, label %6
    i32 1, label %6
    i32 5, label %6
    i32 10, label %6
    i32 11, label %6
    i32 7, label %6
    i32 8, label %6
    i32 12, label %6
    i32 13, label %6
    i32 6, label %6
    i32 14, label %6
    i32 15, label %6
  ]

5:                                                ; preds = %1, %1, %1, %1
  store i1 false, ptr %2, align 1
  br label %8

6:                                                ; preds = %1, %1, %1, %1, %1, %1, %1, %1, %1, %1, %1, %1, %1
  store i1 true, ptr %2, align 1
  br label %8

7:                                                ; preds = %1
  store i1 false, ptr %2, align 1
  br label %8

8:                                                ; preds = %7, %6, %5
  %9 = load i1, ptr %2, align 1
  ret i1 %9
}

; Function Attrs: nounwind uwtable
define dso_local zeroext i1 @pgstat_tracks_io_object(i32 noundef %0, i32 noundef %1, i32 noundef %2) #0 {
  %4 = alloca i1, align 1
  %5 = alloca i32, align 4
  %6 = alloca i32, align 4
  %7 = alloca i32, align 4
  %8 = alloca i8, align 1
  %9 = alloca i32, align 4
  store i32 %0, ptr %5, align 4
  store i32 %1, ptr %6, align 4
  store i32 %2, ptr %7, align 4
  call void @llvm.lifetime.start.p0(i64 1, ptr %8) #8
  %10 = load i32, ptr %5, align 4
  %11 = call zeroext i1 @pgstat_tracks_io_bktype(i32 noundef %10)
  br i1 %11, label %13, label %12

12:                                               ; preds = %3
  store i1 false, ptr %4, align 1
  store i32 1, ptr %9, align 4
  br label %94

13:                                               ; preds = %3
  %14 = load i32, ptr %6, align 4
  %15 = icmp eq i32 %14, 2
  br i1 %15, label %16, label %23

16:                                               ; preds = %13
  %17 = load i32, ptr %7, align 4
  %18 = icmp ne i32 %17, 3
  br i1 %18, label %19, label %23

19:                                               ; preds = %16
  %20 = load i32, ptr %7, align 4
  %21 = icmp ne i32 %20, 2
  br i1 %21, label %22, label %23

22:                                               ; preds = %19
  store i1 false, ptr %4, align 1
  store i32 1, ptr %9, align 4
  br label %94

23:                                               ; preds = %19, %16, %13
  %24 = load i32, ptr %7, align 4
  %25 = icmp ne i32 %24, 3
  br i1 %25, label %26, label %30

26:                                               ; preds = %23
  %27 = load i32, ptr %6, align 4
  %28 = icmp eq i32 %27, 1
  br i1 %28, label %29, label %30

29:                                               ; preds = %26
  store i1 false, ptr %4, align 1
  store i32 1, ptr %9, align 4
  br label %94

30:                                               ; preds = %26, %23
  %31 = load i32, ptr %5, align 4
  %32 = icmp eq i32 %31, 3
  br i1 %32, label %48, label %33

33:                                               ; preds = %30
  %34 = load i32, ptr %5, align 4
  %35 = icmp eq i32 %34, 10
  br i1 %35, label %48, label %36

36:                                               ; preds = %33
  %37 = load i32, ptr %5, align 4
  %38 = icmp eq i32 %37, 11
  br i1 %38, label %48, label %39

39:                                               ; preds = %36
  %40 = load i32, ptr %5, align 4
  %41 = icmp eq i32 %40, 4
  br i1 %41, label %48, label %42

42:                                               ; preds = %39
  %43 = load i32, ptr %5, align 4
  %44 = icmp eq i32 %43, 8
  br i1 %44, label %48, label %45

45:                                               ; preds = %42
  %46 = load i32, ptr %5, align 4
  %47 = icmp eq i32 %46, 12
  br label %48

48:                                               ; preds = %45, %42, %39, %36, %33, %30
  %49 = phi i1 [ true, %42 ], [ true, %39 ], [ true, %36 ], [ true, %33 ], [ true, %30 ], [ %47, %45 ]
  %50 = zext i1 %49 to i8
  store i8 %50, ptr %8, align 1
  %51 = load i8, ptr %8, align 1, !range !8, !noundef !9
  %52 = trunc i8 %51 to i1
  br i1 %52, label %53, label %60

53:                                               ; preds = %48
  %54 = load i32, ptr %7, align 4
  %55 = icmp eq i32 %54, 3
  br i1 %55, label %56, label %60

56:                                               ; preds = %53
  %57 = load i32, ptr %6, align 4
  %58 = icmp eq i32 %57, 1
  br i1 %58, label %59, label %60

59:                                               ; preds = %56
  store i1 false, ptr %4, align 1
  store i32 1, ptr %9, align 4
  br label %94

60:                                               ; preds = %56, %53, %48
  %61 = load i32, ptr %5, align 4
  %62 = icmp eq i32 %61, 11
  br i1 %62, label %66, label %63

63:                                               ; preds = %60
  %64 = load i32, ptr %5, align 4
  %65 = icmp eq i32 %64, 10
  br i1 %65, label %66, label %76

66:                                               ; preds = %63, %60
  %67 = load i32, ptr %7, align 4
  %68 = icmp eq i32 %67, 0
  br i1 %68, label %75, label %69

69:                                               ; preds = %66
  %70 = load i32, ptr %7, align 4
  %71 = icmp eq i32 %70, 1
  br i1 %71, label %75, label %72

72:                                               ; preds = %69
  %73 = load i32, ptr %7, align 4
  %74 = icmp eq i32 %73, 4
  br i1 %74, label %75, label %76

75:                                               ; preds = %72, %69, %66
  store i1 false, ptr %4, align 1
  store i32 1, ptr %9, align 4
  br label %94

76:                                               ; preds = %72, %63
  %77 = load i32, ptr %5, align 4
  %78 = icmp eq i32 %77, 3
  br i1 %78, label %79, label %83

79:                                               ; preds = %76
  %80 = load i32, ptr %7, align 4
  %81 = icmp eq i32 %80, 4
  br i1 %81, label %82, label %83

82:                                               ; preds = %79
  store i1 false, ptr %4, align 1
  store i32 1, ptr %9, align 4
  br label %94

83:                                               ; preds = %79, %76
  %84 = load i32, ptr %5, align 4
  %85 = icmp eq i32 %84, 4
  br i1 %85, label %89, label %86

86:                                               ; preds = %83
  %87 = load i32, ptr %5, align 4
  %88 = icmp eq i32 %87, 3
  br i1 %88, label %89, label %93

89:                                               ; preds = %86, %83
  %90 = load i32, ptr %7, align 4
  %91 = icmp eq i32 %90, 1
  br i1 %91, label %92, label %93

92:                                               ; preds = %89
  store i1 false, ptr %4, align 1
  store i32 1, ptr %9, align 4
  br label %94

93:                                               ; preds = %89, %86
  store i1 true, ptr %4, align 1
  store i32 1, ptr %9, align 4
  br label %94

94:                                               ; preds = %93, %92, %82, %75, %59, %29, %22, %12
  call void @llvm.lifetime.end.p0(i64 1, ptr %8) #8
  %95 = load i1, ptr %4, align 1
  ret i1 %95
}