; Function Attrs: mustprogress nofree norecurse nosync nounwind willreturn memory(none) uwtable
define dso_local zeroext i1 @pgstat_tracks_io_object(i32 noundef %0, i32 noundef %1, i32 noundef %2) local_unnamed_addr #2 {
  switch i32 %0, label %pgstat_tracks_io_bktype.exit [
    i32 15, label %4
    i32 14, label %4
    i32 6, label %4
    i32 13, label %4
    i32 3, label %4
    i32 4, label %4
    i32 1, label %4
    i32 5, label %4
    i32 10, label %4
    i32 11, label %4
    i32 7, label %4
    i32 8, label %4
    i32 12, label %4
  ]

4:                                                ; preds = %3, %3, %3, %3, %3, %3, %3, %3, %3, %3, %3, %3, %3
  %5 = icmp eq i32 %1, 2
  %6 = add i32 %2, -4
  %7 = icmp ult i32 %6, -2
  %or.cond3 = and i1 %5, %7
  br i1 %or.cond3, label %pgstat_tracks_io_bktype.exit, label %8

8:                                                ; preds = %4
  %9 = icmp ne i32 %2, 3
  %10 = icmp eq i32 %1, 1
  %or.cond5 = and i1 %10, %9
  br i1 %or.cond5, label %pgstat_tracks_io_bktype.exit, label %11

11:                                               ; preds = %8
  %12 = icmp eq i32 %0, 3
  switch i32 %0, label %switch.edge.thread [
    i32 11, label %switch.edge
    i32 10, label %switch.edge
    i32 8, label %switch.edge
    i32 4, label %switch.edge
    i32 3, label %switch.edge
    i32 12, label %switch.edge
  ]

switch.edge:                                      ; preds = %11, %11, %11, %11, %11, %11
  %13 = icmp eq i32 %2, 3
  %or.cond17 = and i1 %10, %13
  br i1 %or.cond17, label %pgstat_tracks_io_bktype.exit, label %switch.edge.thread

switch.edge.thread:                               ; preds = %11, %switch.edge
  %14 = and i32 %0, -2
  %or.cond19 = icmp eq i32 %14, 10
  br i1 %or.cond19, label %15, label %16

15:                                               ; preds = %switch.edge.thread
  switch i32 %2, label %.thread [
    i32 4, label %pgstat_tracks_io_bktype.exit
    i32 1, label %pgstat_tracks_io_bktype.exit
    i32 0, label %pgstat_tracks_io_bktype.exit
  ]

16:                                               ; preds = %switch.edge.thread
  %17 = icmp eq i32 %2, 4
  %or.cond25 = and i1 %12, %17
  br i1 %or.cond25, label %pgstat_tracks_io_bktype.exit, label %.thread

.thread:                                          ; preds = %15, %16
  %18 = add nsw i32 %0, -5
  %or.cond27 = icmp ult i32 %18, -2
  %19 = icmp ne i32 %2, 1
  %or.cond29.not = or i1 %or.cond27, %19
  br label %pgstat_tracks_io_bktype.exit

pgstat_tracks_io_bktype.exit:                     ; preds = %3, %.thread, %16, %15, %15, %15, %switch.edge, %8, %4
  %.0 = phi i1 [ false, %4 ], [ false, %8 ], [ false, %switch.edge ], [ false, %15 ], [ false, %15 ], [ false, %15 ], [ false, %16 ], [ %or.cond29.not, %.thread ], [ false, %3 ]
  ret i1 %.0
}